; Function Attrs: null_pointer_is_valid sspstrong uwtable
define hidden i32 @dissect_h225_GenericData(ptr noundef %0, i32 noundef %1, ptr noundef %2, ptr noundef %3, i32 noundef %4) #0 {
  %6 = getelementptr inbounds nuw i8, ptr %2, i64 16
  %7 = load ptr, ptr %6, align 8
  %8 = getelementptr inbounds nuw i8, ptr %7, i64 432
  %9 = load i32, ptr %8, align 8
  %10 = add i32 %9, 5
  store i32 %10, ptr %8, align 8
  %11 = load ptr, ptr %6, align 8
  tail call void @increment_dissection_depth(ptr noundef %11)
  %12 = getelementptr inbounds nuw i8, ptr %2, i64 48
  %13 = load ptr, ptr %12, align 8
  %14 = tail call ptr @gef_ctx_get(ptr noundef %13)
  %.not = icmp eq ptr %14, null
  br i1 %.not, label %15, label %20

15:                                               ; preds = %5
  %16 = load ptr, ptr %6, align 8
  %17 = getelementptr inbounds nuw i8, ptr %16, i64 408
  %18 = load ptr, ptr %17, align 8
  %19 = tail call ptr @gef_ctx_alloc(ptr noundef %18, ptr noundef null, ptr noundef nonnull @.str.61)
  store ptr %19, ptr %12, align 8
  br label %20

20:                                               ; preds = %15, %5
  %21 = load i32, ptr @ett_h225_GenericData, align 4
  %22 = tail call i32 @dissect_per_sequence(ptr noundef %0, i32 noundef %1, ptr noundef %2, ptr noundef %3, i32 noundef %4, i32 noundef %21, ptr noundef nonnull @GenericData_sequence)
  %23 = load ptr, ptr %6, align 8
  %24 = getelementptr inbounds nuw i8, ptr %23, i64 432
  %25 = load i32, ptr %24, align 8
  %26 = add i32 %25, -5
  store i32 %26, ptr %24, align 8
  %27 = load ptr, ptr %6, align 8
  tail call void @decrement_dissection_depth(ptr noundef %27)
  store ptr %13, ptr %12, align 8
  ret i32 %22
}